ccopy_reg
_reconstructor
p0
(csklearn.pipeline
Pipeline
p1
c__builtin__
object
p2
Ntp3
Rp4
(dp5
S'steps'
p6
(lp7
(S'feature_selection'
p8
g0
(csklearn.feature_selection.univariate_selection
SelectKBest
p9
g2
Ntp10
Rp11
(dp12
S'k'
p13
I5
sS'score_func'
p14
csklearn.feature_selection.univariate_selection
f_regression
p15
sbtp16
a(S'clf'
p17
g0
(csklearn.naive_bayes
GaussianNB
p18
g2
Ntp19
Rp20
tp21
asb.