(dp0
S'METTS MARK'
p1
(dp2
S'to_messages'
p3
I807
sS'deferral_payments'
p4
S'NaN'
p5
sS'bonus'
p6
I600000
sS'salary_bonus_ratio'
p7
F0.6096466666666667
sS'total_minus_exercised'
p8
S'NaN'
p9
sS'total_stock_value'
p10
I585062
sS'expenses'
p11
I94299
sS'from_poi_to_this_person'
p12
I38
sS'from_this_person_to_poi'
p13
I1
sS'poi'
p14
I00
sS'deferred_income'
p15
g5
sS'restricted_stock'
p16
I585062
sS'long_term_incentive'
p17
g5
sS'salary'
p18
I365788
sS'total_payments'
p19
I1061827
sS'loan_advances'
p20
g5
sS'email_address'
p21
S'mark.metts@enron.com'
p22
sS'restricted_stock_deferred'
p23
g5
sS'shared_receipt_with_poi'
p24
I702
sS'exercised_stock_options'
p25
g5
sS'from_messages'
p26
I29
sS'other'
p27
I1740
sS'director_fees'
p28
g5
ssS'BAXTER JOHN C'
p29
(dp30
g3
g5
sg4
I1295738
sg6
I1200000
sg7
F0.222585
sg8
F3942714.0
sg10
I10623258
sg11
I11200
sg12
g5
sg13
g5
sg14
I00
sg15
I-1386055
sg16
I3942714
sg17
I1586055
sg18
I267102
sg19
I5634343
sg20
g5
sg21
g5
sg23
g5
sg24
g5
sg25
I6680544
sg26
g5
sg27
I2660303
sg28
g5
ssS'ELLIOTT STEVEN'
p31
(dp32
g3
g5
sg4
g5
sg6
I350000
sg7
F0.48840285714285714
sg8
F1788391.0
sg10
I6678735
sg11
I78552
sg12
g5
sg13
g5
sg14
I00
sg15
I-400729
sg16
I1788391
sg17
g5
sg18
I170941
sg19
I211725
sg20
g5
sg21
S'steven.elliott@enron.com'
p33
sg23
g5
sg24
g5
sg25
I4890344
sg26
g5
sg27
I12961
sg28
g5
ssS'CORDES WILLIAM R'
p34
(dp35
g3
I764
sg4
g5
sg6
g5
sg7
g9
sg8
F386335.0
sg10
I1038185
sg11
g5
sg12
I10
sg13
I0
sg14
I00
sg15
g5
sg16
I386335
sg17
g5
sg18
g5
sg19
g5
sg20
g5
sg21
S'bill.cordes@enron.com'
p36
sg23
g5
sg24
I58
sg25
I651850
sg26
I12
sg27
g5
sg28
g5
ssS'HANNON KEVIN P'
p37
(dp38
g3
I1045
sg4
g5
sg6
I1500000
sg7
F0.16219533333333333
sg8
F853064.0
sg10
I6391065
sg11
I34039
sg12
I32
sg13
I21
sg14
I01
sg15
I-3117011
sg16
I853064
sg17
I1617011
sg18
I243293
sg19
I288682
sg20
g5
sg21
S'kevin.hannon@enron.com'
p39
sg23
g5
sg24
I1035
sg25
I5538001
sg26
I32
sg27
I11350
sg28
g5
ssS'MORDAUNT KRISTINA M'
p40
(dp41
g3
g5
sg4
g5
sg6
I325000
sg7
F0.8218246153846154
sg8
g9
sg10
I208510
sg11
I35018
sg12
g5
sg13
g5
sg14
I00
sg15
g5
sg16
I208510
sg17
g5
sg18
I267093
sg19
I628522
sg20
g5
sg21
S'kristina.mordaunt@enron.com'
p42
sg23
g5
sg24
g5
sg25
g5
sg26
g5
sg27
I1411
sg28
g5
ssS'MEYER ROCKFORD G'
p43
(dp44
g3
I232
sg4
I1848227
sg6
g5
sg7
g9
sg8
F462384.0
sg10
I955873
sg11
g5
sg12
I0
sg13
I0
sg14
I00
sg15
g5
sg16
I462384
sg17
g5
sg18
g5
sg19
I1848227
sg20
g5
sg21
S'rockford.meyer@enron.com'
p45
sg23
g5
sg24
I22
sg25
I493489
sg26
I28
sg27
g5
sg28
g5
ssS'MCMAHON JEFFREY'
p46
(dp47
g3
I2355
sg4
g5
sg6
I2600000
sg7
F0.14248
sg8
F558801.0
sg10
I1662855
sg11
I137108
sg12
I58
sg13
I26
sg14
I00
sg15
g5
sg16
I558801
sg17
I694862
sg18
I370448
sg19
I4099771
sg20
g5
sg21
S'jeffrey.mcmahon@enron.com'
p48
sg23
g5
sg24
I2228
sg25
I1104054
sg26
I48
sg27
I297353
sg28
g5
ssS'HORTON STANLEY C'
p49
(dp50
g3
I2350
sg4
I3131860
sg6
g5
sg7
g9
sg8
F2046079.0
sg10
I7256648
sg11
g5
sg12
I44
sg13
I15
sg14
I00
sg15
g5
sg16
I2046079
sg17
g5
sg18
g5
sg19
I3131860
sg20
g5
sg21
S'stanley.horton@enron.com'
p51
sg23
g5
sg24
I1074
sg25
I5210569
sg26
I1073
sg27
g5
sg28
g5
ssS'PIPER GREGORY F'
p52
(dp53
g3
I1238
sg4
I1130036
sg6
I400000
sg7
F0.4927275
sg8
F0.0
sg10
I880290
sg11
I43057
sg12
I61
sg13
I48
sg14
I00
sg15
I-33333
sg16
I409554
sg17
g5
sg18
I197091
sg19
I1737629
sg20
g5
sg21
S'greg.piper@enron.com'
p54
sg23
I-409554
sg24
I742
sg25
I880290
sg26
I222
sg27
I778
sg28
g5
ssS'HUMPHREY GENE E'
p55
(dp56
g3
I128
sg4
I2964506
sg6
g5
sg7
g9
sg8
F0.0
sg10
I2282768
sg11
I4994
sg12
I10
sg13
I17
sg14
I00
sg15
g5
sg16
g5
sg17
g5
sg18
I130724
sg19
I3100224
sg20
g5
sg21
S'gene.humphrey@enron.com'
p57
sg23
g5
sg24
I119
sg25
I2282768
sg26
I17
sg27
g5
sg28
g5
ssS'UMANOFF ADAM S'
p58
(dp59
g3
I111
sg4
g5
sg6
I788750
sg7
F0.36588145800316957
sg8
g9
sg10
g5
sg11
I53122
sg12
I12
sg13
I0
sg14
I00
sg15
g5
sg16
g5
sg17
g5
sg18
I288589
sg19
I1130461
sg20
g5
sg21
S'adam.umanoff@enron.com'
p60
sg23
g5
sg24
I41
sg25
g5
sg26
I18
sg27
g5
sg28
g5
ssS'BLACHMAN JEREMY M'
p61
(dp62
g3
I2475
sg4
g5
sg6
I850000
sg7
F0.2924070588235294
sg8
F189041.0
sg10
I954354
sg11
I84208
sg12
I25
sg13
I2
sg14
I00
sg15
g5
sg16
I189041
sg17
I831809
sg18
I248546
sg19
I2014835
sg20
g5
sg21
S'jeremy.blachman@enron.com'
p63
sg23
g5
sg24
I2326
sg25
I765313
sg26
I14
sg27
I272
sg28
g5
ssS'SUNDE MARTIN'
p64
(dp65
g3
I2647
sg4
g5
sg6
I700000
sg7
F0.36783714285714286
sg8
g9
sg10
I698920
sg11
g5
sg12
I37
sg13
I13
sg14
I00
sg15
g5
sg16
I698920
sg17
I476451
sg18
I257486
sg19
I1545059
sg20
g5
sg21
S'marty.sunde@enron.com'
p66
sg23
g5
sg24
I2565
sg25
g5
sg26
I38
sg27
I111122
sg28
g5
ssS'GIBBS DANA R'
p67
(dp68
g3
I169
sg4
I504610
sg6
g5
sg7
g9
sg8
F0.0
sg10
I2218275
sg11
g5
sg12
I0
sg13
I0
sg14
I00
sg15
g5
sg16
g5
sg17
I461912
sg18
g5
sg19
I966522
sg20
g5
sg21
S'dana.gibbs@enron.com'
p69
sg23
g5
sg24
I23
sg25
I2218275
sg26
I12
sg27
g5
sg28
g5
ssS'LOWRY CHARLES P'
p70
(dp71
g3
g5
sg4
g5
sg6
g5
sg7
g9
sg8
F0.0
sg10
I372205
sg11
g5
sg12
g5
sg13
g5
sg14
I00
sg15
g5
sg16
I153686
sg17
g5
sg18
g5
sg19
g5
sg20
g5
sg21
g5
sg23
I-153686
sg24
g5
sg25
I372205
sg26
g5
sg27
g5
sg28
g5
ssS'COLWELL WESLEY'
p72
(dp73
g3
I1758
sg4
I27610
sg6
I1200000
sg7
F0.24045166666666667
sg8
g9
sg10
I698242
sg11
I16514
sg12
I240
sg13
I11
sg14
I01
sg15
I-144062
sg16
I698242
sg17
g5
sg18
I288542
sg19
I1490344
sg20
g5
sg21
S'wes.colwell@enron.com'
p74
sg23
g5
sg24
I1132
sg25
g5
sg26
I40
sg27
I101740
sg28
g5
ssS'MULLER MARK S'
p75
(dp76
g3
I136
sg4
I842924
sg6
I1100000
sg7
F0.22877636363636364
sg8
F360528.0
sg10
I1416848
sg11
g5
sg12
I12
sg13
I0
sg14
I00
sg15
I-719000
sg16
I360528
sg17
I1725545
sg18
I251654
sg19
I3202070
sg20
g5
sg21
S's..muller@enron.com'
p77
sg23
g5
sg24
I114
sg25
I1056320
sg26
I16
sg27
I947
sg28
g5
ssS'JACKSON CHARLENE R'
p78
(dp79
g3
I258
sg4
g5
sg6
I250000
sg7
F1.154232
sg8
F540672.0
sg10
I725735
sg11
I10181
sg12
I25
sg13
I19
sg14
I00
sg15
g5
sg16
I540672
sg17
g5
sg18
I288558
sg19
I551174
sg20
g5
sg21
S'charlene.jackson@enron.com'
p80
sg23
g5
sg24
I117
sg25
I185063
sg26
I56
sg27
I2435
sg28
g5
ssS'WESTFAHL RICHARD K'
p81
(dp82
g3
g5
sg4
g5
sg6
g5
sg7
g9
sg8
g9
sg10
I384930
sg11
I51870
sg12
g5
sg13
g5
sg14
I00
sg15
I-10800
sg16
I384930
sg17
I256191
sg18
I63744
sg19
I762135
sg20
g5
sg21
S'dick.westfahl@enron.com'
p83
sg23
g5
sg24
g5
sg25
g5
sg26
g5
sg27
I401130
sg28
g5
ssS'WALTERS GARETH W'
p84
(dp85
g3
g5
sg4
I53625
sg6
g5
sg7
g9
sg8
F0.0
sg10
I1030329
sg11
I33785
sg12
g5
sg13
g5
sg14
I00
sg15
g5
sg16
g5
sg17
g5
sg18
g5
sg19
I87410
sg20
g5
sg21
g5
sg23
g5
sg24
g5
sg25
I1030329
sg26
g5
sg27
g5
sg28
g5
ssS'WALLS JR ROBERT H'
p86
(dp87
g3
I671
sg4
g5
sg6
I850000
sg7
F0.4201070588235294
sg8
F1552453.0
sg10
I5898997
sg11
I50936
sg12
I17
sg13
I0
sg14
I00
sg15
g5
sg16
I1552453
sg17
I540751
sg18
I357091
sg19
I1798780
sg20
g5
sg21
S'rob.walls@enron.com'
p88
sg23
g5
sg24
I215
sg25
I4346544
sg26
I146
sg27
I2
sg28
g5
ssS'KITCHEN LOUISE'
p89
(dp90
g3
I8305
sg4
g5
sg6
I3100000
sg7
F0.08756193548387096
sg8
F466101.0
sg10
I547143
sg11
I5774
sg12
I251
sg13
I194
sg14
I00
sg15
g5
sg16
I466101
sg17
g5
sg18
I271442
sg19
I3471141
sg20
g5
sg21
S'louise.kitchen@enron.com'
p91
sg23
g5
sg24
I3669
sg25
I81042
sg26
I1728
sg27
I93925
sg28
g5
ssS'CHAN RONNIE'
p92
(dp93
g3
g5
sg4
g5
sg6
g5
sg7
g9
sg8
g9
sg10
g5
sg11
g5
sg12
g5
sg13
g5
sg14
I00
sg15
I-98784
sg16
I32460
sg17
g5
sg18
g5
sg19
g5
sg20
g5
sg21
g5
sg23
I-32460
sg24
g5
sg25
g5
sg26
g5
sg27
g5
sg28
I98784
ssS'BELFER ROBERT'
p94
(dp95
g3
g5
sg4
I-102500
sg6
g5
sg7
g9
sg8
F-47378.0
sg10
I-44093
sg11
g5
sg12
g5
sg13
g5
sg14
I00
sg15
g5
sg16
g5
sg17
g5
sg18
g5
sg19
I102500
sg20
g5
sg21
g5
sg23
I44093
sg24
g5
sg25
I3285
sg26
g5
sg27
g5
sg28
I3285
ssS'SHANKMAN JEFFREY A'
p96
(dp97
g3
I3221
sg4
g5
sg6
I2000000
sg7
F0.152055
sg8
F630137.0
sg10
I2072035
sg11
I178979
sg12
I94
sg13
I83
sg14
I00
sg15
g5
sg16
I630137
sg17
I554422
sg18
I304110
sg19
I3038702
sg20
g5
sg21
S'jeffrey.shankman@enron.com'
p98
sg23
g5
sg24
I1730
sg25
I1441898
sg26
I2681
sg27
I1191
sg28
g5
ssS'WODRASKA JOHN'
p99
(dp100
g3
g5
sg4
g5
sg6
g5
sg7
g9
sg8
g9
sg10
g5
sg11
g5
sg12
g5
sg13
g5
sg14
I00
sg15
g5
sg16
g5
sg17
g5
sg18
g5
sg19
I189583
sg20
g5
sg21
S'john.wodraska@enron.com'
p101
sg23
g5
sg24
g5
sg25
g5
sg26
g5
sg27
I189583
sg28
g5
ssS'BERGSIEKER RICHARD P'
p102
(dp103
g3
I383
sg4
g5
sg6
I250000
sg7
F0.751688
sg8
g9
sg10
I659249
sg11
I59175
sg12
I4
sg13
I0
sg14
I00
sg15
I-485813
sg16
I659249
sg17
I180250
sg18
I187922
sg19
I618850
sg20
g5
sg21
S'rick.bergsieker@enron.com'
p104
sg23
g5
sg24
I233
sg25
g5
sg26
I59
sg27
I427316
sg28
g5
ssS'URQUHART JOHN A'
p105
(dp106
g3
g5
sg4
g5
sg6
g5
sg7
g9
sg8
g9
sg10
g5
sg11
I228656
sg12
g5
sg13
g5
sg14
I00
sg15
I-36666
sg16
g5
sg17
g5
sg18
g5
sg19
I228656
sg20
g5
sg21
g5
sg23
g5
sg24
g5
sg25
g5
sg26
g5
sg27
g5
sg28
I36666
ssS'BIBI PHILIPPE A'
p107
(dp108
g3
I1607
sg4
g5
sg6
I1000000
sg7
F0.213625
sg8
F378082.0
sg10
I1843816
sg11
I38559
sg12
I23
sg13
I8
sg14
I00
sg15
g5
sg16
I378082
sg17
I369721
sg18
I213625
sg19
I2047593
sg20
g5
sg21
S'philippe.bibi@enron.com'
p109
sg23
g5
sg24
I1336
sg25
I1465734
sg26
I40
sg27
I425688
sg28
g5
ssS'RIEKER PAULA H'
p110
(dp111
g3
I1328
sg4
I214678
sg6
I700000
sg7
F0.3560014285714286
sg8
F283649.0
sg10
I1918887
sg11
I33271
sg12
I35
sg13
I48
sg14
I01
sg15
I-100000
sg16
I283649
sg17
g5
sg18
I249201
sg19
I1099100
sg20
g5
sg21
S'paula.rieker@enron.com'
p112
sg23
g5
sg24
I1258
sg25
I1635238
sg26
I82
sg27
I1950
sg28
g5
ssS'WHALEY DAVID A'
p113
(dp114
g3
g5
sg4
g5
sg6
g5
sg7
g9
sg8
F0.0
sg10
I98718
sg11
g5
sg12
g5
sg13
g5
sg14
I00
sg15
g5
sg16
g5
sg17
g5
sg18
g5
sg19
g5
sg20
g5
sg21
g5
sg23
g5
sg24
g5
sg25
I98718
sg26
g5
sg27
g5
sg28
g5
ssS'BECK SALLY W'
p115
(dp116
g3
I7315
sg4
g5
sg6
I700000
sg7
F0.3304714285714286
sg8
g9
sg10
I126027
sg11
I37172
sg12
I144
sg13
I386
sg14
I00
sg15
g5
sg16
I126027
sg17
g5
sg18
I231330
sg19
I969068
sg20
g5
sg21
S'sally.beck@enron.com'
p117
sg23
g5
sg24
I2639
sg25
g5
sg26
I4343
sg27
I566
sg28
g5
ssS'HAUG DAVID L'
p118
(dp119
g3
I573
sg4
g5
sg6
g5
sg7
g9
sg8
g9
sg10
I2217299
sg11
I475
sg12
I4
sg13
I7
sg14
I00
sg15
g5
sg16
I2217299
sg17
g5
sg18
g5
sg19
I475
sg20
g5
sg21
S'david.haug@enron.com'
p120
sg23
g5
sg24
I471
sg25
g5
sg26
I19
sg27
g5
sg28
g5
ssS'ECHOLS JOHN B'
p121
(dp122
g3
g5
sg4
g5
sg6
I200000
sg7
F0.911225
sg8
F407503.0
sg10
I1008941
sg11
I21530
sg12
g5
sg13
g5
sg14
I00
sg15
g5
sg16
I407503
sg17
I2234774
sg18
I182245
sg19
I2692324
sg20
g5
sg21
S'john.echols@enron.com'
p123
sg23
g5
sg24
g5
sg25
I601438
sg26
g5
sg27
I53775
sg28
g5
ssS'MENDELSOHN JOHN'
p124
(dp125
g3
g5
sg4
g5
sg6
g5
sg7
g9
sg8
g9
sg10
g5
sg11
I148
sg12
g5
sg13
g5
sg14
I00
sg15
I-103750
sg16
g5
sg17
g5
sg18
g5
sg19
I148
sg20
g5
sg21
g5
sg23
g5
sg24
g5
sg25
g5
sg26
g5
sg27
g5
sg28
I103750
ssS'HICKERSON GARY J'
p126
(dp127
g3
I1320
sg4
g5
sg6
I1700000
sg7
F0.12458117647058824
sg8
g9
sg10
I441096
sg11
I98849
sg12
I40
sg13
I1
sg14
I00
sg15
g5
sg16
I441096
sg17
I69223
sg18
I211788
sg19
I2081796
sg20
g5
sg21
S'gary.hickerson@enron.com'
p128
sg23
g5
sg24
I900
sg25
g5
sg26
I27
sg27
I1936
sg28
g5
ssS'CLINE KENNETH W'
p129
(dp130
g3
g5
sg4
g5
sg6
g5
sg7
g9
sg8
g9
sg10
I189518
sg11
g5
sg12
g5
sg13
g5
sg14
I00
sg15
g5
sg16
I662086
sg17
g5
sg18
g5
sg19
g5
sg20
g5
sg21
g5
sg23
I-472568
sg24
g5
sg25
g5
sg26
g5
sg27
g5
sg28
g5
ssS'LEWIS RICHARD'
p131
(dp132
g3
I952
sg4
g5
sg6
g5
sg7
g9
sg8
F0.0
sg10
I850477
sg11
g5
sg12
I10
sg13
I0
sg14
I00
sg15
g5
sg16
g5
sg17
g5
sg18
g5
sg19
g5
sg20
g5
sg21
S'richard.lewis@enron.com'
p133
sg23
g5
sg24
I739
sg25
I850477
sg26
I26
sg27
g5
sg28
g5
ssS'HAYES ROBERT E'
p134
(dp135
g3
I504
sg4
I7961
sg6
g5
sg7
g9
sg8
g9
sg10
I151418
sg11
g5
sg12
I16
sg13
I0
sg14
I00
sg15
g5
sg16
I151418
sg17
g5
sg18
g5
sg19
I7961
sg20
g5
sg21
S'robert.hayes@enron.com'
p136
sg23
g5
sg24
I50
sg25
g5
sg26
I12
sg27
g5
sg28
g5
ssS'MCCARTY DANNY J'
p137
(dp138
g3
I1433
sg4
g5
sg6
g5
sg7
g9
sg8
F94556.0
sg10
I758931
sg11
g5
sg12
I25
sg13
I2
sg14
I00
sg15
g5
sg16
I94556
sg17
g5
sg18
g5
sg19
g5
sg20
g5
sg21
S'danny.mccarty@enron.com'
p139
sg23
g5
sg24
I508
sg25
I664375
sg26
I215
sg27
g5
sg28
g5
ssS'KOPPER MICHAEL J'
p140
(dp141
g3
g5
sg4
g5
sg6
I800000
sg7
F0.28038125
sg8
g9
sg10
I985032
sg11
I118134
sg12
g5
sg13
g5
sg14
I01
sg15
g5
sg16
I985032
sg17
I602671
sg18
I224305
sg19
I2652612
sg20
g5
sg21
S'michael.kopper@enron.com'
p142
sg23
g5
sg24
g5
sg25
g5
sg26
g5
sg27
I907502
sg28
g5
ssS'LEFF DANIEL P'
p143
(dp144
g3
I2822
sg4
g5
sg6
I1000000
sg7
F0.273746
sg8
g9
sg10
I360528
sg11
g5
sg12
I67
sg13
I14
sg14
I00
sg15
g5
sg16
I360528
sg17
I1387399
sg18
I273746
sg19
I2664228
sg20
g5
sg21
S'dan.leff@enron.com'
p145
sg23
g5
sg24
I2672
sg25
g5
sg26
I63
sg27
I3083
sg28
g5
ssS'LAVORATO JOHN J'
p146
(dp147
g3
I7259
sg4
g5
sg6
I8000000
sg7
F0.042411
sg8
F1008149.0
sg10
I5167144
sg11
I49537
sg12
I528
sg13
I411
sg14
I00
sg15
g5
sg16
I1008149
sg17
I2035380
sg18
I339288
sg19
I10425757
sg20
g5
sg21
S'john.lavorato@enron.com'
p148
sg23
g5
sg24
I3962
sg25
I4158995
sg26
I2585
sg27
I1552
sg28
g5
ssS'BERBERIAN DAVID'
p149
(dp150
g3
g5
sg4
g5
sg6
g5
sg7
g9
sg8
F869220.0
sg10
I2493616
sg11
I11892
sg12
g5
sg13
g5
sg14
I00
sg15
g5
sg16
I869220
sg17
g5
sg18
I216582
sg19
I228474
sg20
g5
sg21
S'david.berberian@enron.com'
p151
sg23
g5
sg24
g5
sg25
I1624396
sg26
g5
sg27
g5
sg28
g5
ssS'DETMERING TIMOTHY J'
p152
(dp153
g3
g5
sg4
I875307
sg6
I425000
sg7
F0.49529411764705883
sg8
F0.0
sg10
I2027865
sg11
I52255
sg12
g5
sg13
g5
sg14
I00
sg15
I-775241
sg16
I315068
sg17
I415657
sg18
I210500
sg19
I1204583
sg20
g5
sg21
S'timothy.detmering@enron.com'
p154
sg23
I-315068
sg24
g5
sg25
I2027865
sg26
g5
sg27
I1105
sg28
g5
ssS'WAKEHAM JOHN'
p155
(dp156
g3
g5
sg4
g5
sg6
g5
sg7
g9
sg8
g9
sg10
g5
sg11
I103773
sg12
g5
sg13
g5
sg14
I00
sg15
g5
sg16
g5
sg17
g5
sg18
g5
sg19
I213071
sg20
g5
sg21
g5
sg23
g5
sg24
g5
sg25
g5
sg26
g5
sg27
g5
sg28
I109298
ssS'POWERS WILLIAM'
p157
(dp158
g3
I653
sg4
g5
sg6
g5
sg7
g9
sg8
g9
sg10
g5
sg11
g5
sg12
I0
sg13
I0
sg14
I00
sg15
I-17500
sg16
g5
sg17
g5
sg18
g5
sg19
g5
sg20
g5
sg21
S'ken.powers@enron.com'
p159
sg23
g5
sg24
I12
sg25
g5
sg26
I26
sg27
g5
sg28
I17500
ssS'GOLD JOSEPH'
p160
(dp161
g3
g5
sg4
g5
sg6
I750000
sg7
F0.36384
sg8
F441096.0
sg10
I877611
sg11
g5
sg12
g5
sg13
g5
sg14
I00
sg15
g5
sg16
I441096
sg17
I304805
sg18
I272880
sg19
I2146973
sg20
g5
sg21
S'joe.gold@enron.com'
p162
sg23
g5
sg24
g5
sg25
I436515
sg26
g5
sg27
I819288
sg28
g5
ssS'BANNANTINE JAMES M'
p163
(dp164
g3
I566
sg4
g5
sg6
g5
sg7
g9
sg8
F1197330.0
sg10
I5243487
sg11
I56301
sg12
I39
sg13
I0
sg14
I00
sg15
I-5104
sg16
I1757552
sg17
g5
sg18
I477
sg19
I916197
sg20
g5
sg21
S'james.bannantine@enron.com'
p165
sg23
I-560222
sg24
I465
sg25
I4046157
sg26
I29
sg27
I864523
sg28
g5
ssS'DUNCAN JOHN H'
p166
(dp167
g3
g5
sg4
g5
sg6
g5
sg7
g9
sg8
F0.0
sg10
I371750
sg11
g5
sg12
g5
sg13
g5
sg14
I00
sg15
I-25000
sg16
g5
sg17
g5
sg18
g5
sg19
I77492
sg20
g5
sg21
g5
sg23
g5
sg24
g5
sg25
I371750
sg26
g5
sg27
g5
sg28
I102492
ssS'SHAPIRO RICHARD S'
p168
(dp169
g3
I15149
sg4
g5
sg6
I650000
sg7
F0.41396307692307693
sg8
F379164.0
sg10
I987001
sg11
I137767
sg12
I74
sg13
I65
sg14
I00
sg15
g5
sg16
I379164
sg17
g5
sg18
I269076
sg19
I1057548
sg20
g5
sg21
S'richard.shapiro@enron.com'
p170
sg23
g5
sg24
I4527
sg25
I607837
sg26
I1215
sg27
I705
sg28
g5
ssS'SHERRIFF JOHN R'
p171
(dp172
g3
I3187
sg4
g5
sg6
I1500000
sg7
F0.28585333333333335
sg8
F1293424.0
sg10
I3128982
sg11
g5
sg12
I28
sg13
I23
sg14
I00
sg15
g5
sg16
I1293424
sg17
I554422
sg18
I428780
sg19
I4335388
sg20
g5
sg21
S'john.sherriff@enron.com'
p173
sg23
g5
sg24
I2103
sg25
I1835558
sg26
I92
sg27
I1852186
sg28
g5
ssS'SHELBY REX'
p174
(dp175
g3
I225
sg4
g5
sg6
I200000
sg7
F1.05922
sg8
F869220.0
sg10
I2493616
sg11
I22884
sg12
I13
sg13
I14
sg14
I01
sg15
I-4167
sg16
I869220
sg17
g5
sg18
I211844
sg19
I2003885
sg20
g5
sg21
S'rex.shelby@enron.com'
p176
sg23
g5
sg24
I91
sg25
I1624396
sg26
I39
sg27
I1573324
sg28
g5
ssS'LEMAISTRE CHARLES'
p177
(dp178
g3
g5
sg4
g5
sg6
g5
sg7
g9
sg8
F0.0
sg10
I412878
sg11
g5
sg12
g5
sg13
g5
sg14
I00
sg15
I-25000
sg16
g5
sg17
g5
sg18
g5
sg19
I87492
sg20
g5
sg21
g5
sg23
g5
sg24
g5
sg25
I412878
sg26
g5
sg27
g5
sg28
I112492
ssS'DEFFNER JOSEPH M'
p179
(dp180
g3
I714
sg4
g5
sg6
I600000
sg7
F0.343535
sg8
F141833.0
sg10
I159211
sg11
I41626
sg12
I115
sg13
I4
sg14
I00
sg15
g5
sg16
I141833
sg17
I335349
sg18
I206121
sg19
I1208649
sg20
g5
sg21
S'joseph.deffner@enron.com'
p181
sg23
g5
sg24
I552
sg25
I17378
sg26
I74
sg27
I25553
sg28
g5
ssS'KISHKILL JOSEPH G'
p182
(dp183
g3
g5
sg4
g5
sg6
g5
sg7
g9
sg8
g9
sg10
I1034346
sg11
I116335
sg12
g5
sg13
g5
sg14
I00
sg15
I-51042
sg16
I1034346
sg17
g5
sg18
I174246
sg19
I704896
sg20
g5
sg21
S'joe.kishkill@enron.com'
p184
sg23
g5
sg24
g5
sg25
g5
sg26
g5
sg27
I465357
sg28
g5
ssS'WHALLEY LAWRENCE G'
p185
(dp186
g3
I6019
sg4
g5
sg6
I3000000
sg7
F0.17012133333333335
sg8
F2796177.0
sg10
I6079137
sg11
I57838
sg12
I186
sg13
I24
sg14
I00
sg15
g5
sg16
I2796177
sg17
I808346
sg18
I510364
sg19
I4677574
sg20
g5
sg21
S'greg.whalley@enron.com'
p187
sg23
g5
sg24
I3920
sg25
I3282960
sg26
I556
sg27
I301026
sg28
g5
ssS'MCCONNELL MICHAEL S'
p188
(dp189
g3
I3329
sg4
g5
sg6
I1100000
sg7
F0.3318527272727273
sg8
F1478269.0
sg10
I3101279
sg11
I81364
sg12
I92
sg13
I194
sg14
I00
sg15
g5
sg16
I1478269
sg17
I554422
sg18
I365038
sg19
I2101364
sg20
g5
sg21
S'mike.mcconnell@enron.com'
p190
sg23
g5
sg24
I2189
sg25
I1623010
sg26
I2742
sg27
I540
sg28
g5
ssS'PIRO JIM'
p191
(dp192
g3
I58
sg4
g5
sg6
g5
sg7
g9
sg8
g9
sg10
I47304
sg11
g5
sg12
I0
sg13
I1
sg14
I00
sg15
g5
sg16
I47304
sg17
g5
sg18
g5
sg19
g5
sg20
g5
sg21
S'jim.piro@enron.com'
p193
sg23
g5
sg24
I3
sg25
g5
sg26
I16
sg27
g5
sg28
g5
ssS'DELAINEY DAVID W'
p194
(dp195
g3
I3093
sg4
g5
sg6
I3000000
sg7
F0.121721
sg8
F1323148.0
sg10
I3614261
sg11
I86174
sg12
I66
sg13
I609
sg14
I01
sg15
g5
sg16
I1323148
sg17
I1294981
sg18
I365163
sg19
I4747979
sg20
g5
sg21
S'david.delainey@enron.com'
p196
sg23
g5
sg24
I2097
sg25
I2291113
sg26
I3069
sg27
I1661
sg28
g5
ssS'SULLIVAN-SHAKLOVITZ COLLEEN'
p197
(dp198
g3
g5
sg4
I181993
sg6
I100000
sg7
F1.62779
sg8
F0.0
sg10
I1362375
sg11
g5
sg12
g5
sg13
g5
sg14
I00
sg15
g5
sg16
g5
sg17
I554422
sg18
I162779
sg19
I999356
sg20
g5
sg21
g5
sg23
g5
sg24
g5
sg25
I1362375
sg26
g5
sg27
I162
sg28
g5
ssS'WROBEL BRUCE'
p199
(dp200
g3
g5
sg4
g5
sg6
g5
sg7
g9
sg8
F0.0
sg10
I139130
sg11
g5
sg12
g5
sg13
g5
sg14
I00
sg15
g5
sg16
g5
sg17
g5
sg18
g5
sg19
g5
sg20
g5
sg21
g5
sg23
g5
sg24
g5
sg25
I139130
sg26
g5
sg27
g5
sg28
g5
ssS'LINDHOLM TOD A'
p201
(dp202
g3
g5
sg4
I204075
sg6
I200000
sg7
F1.182285
sg8
F514847.0
sg10
I3064208
sg11
I57727
sg12
g5
sg13
g5
sg14
I00
sg15
g5
sg16
I514847
sg17
I175000
sg18
I236457
sg19
I875889
sg20
g5
sg21
S'tod.lindholm@enron.com'
p203
sg23
g5
sg24
g5
sg25
I2549361
sg26
g5
sg27
I2630
sg28
g5
ssS'MEYER JEROME J'
p204
(dp205
g3
g5
sg4
g5
sg6
g5
sg7
g9
sg8
g9
sg10
g5
sg11
I2151
sg12
g5
sg13
g5
sg14
I00
sg15
I-38346
sg16
g5
sg17
g5
sg18
g5
sg19
I2151
sg20
g5
sg21
g5
sg23
g5
sg24
g5
sg25
g5
sg26
g5
sg27
g5
sg28
I38346
ssS'LAY KENNETH L'
p206
(dp207
g3
I4273
sg4
I202911
sg6
I7000000
sg7
F0.1531887142857143
sg8
F14761694.0
sg10
I49110078
sg11
I99832
sg12
I123
sg13
I16
sg14
I01
sg15
I-300000
sg16
I14761694
sg17
I3600000
sg18
I1072321
sg19
I103559793
sg20
I81525000
sg21
S'kenneth.lay@enron.com'
p208
sg23
g5
sg24
I2411
sg25
I34348384
sg26
I36
sg27
I10359729
sg28
g5
ssS'BUTTS ROBERT H'
p209
(dp210
g3
g5
sg4
g5
sg6
I750000
sg7
F0.348688
sg8
g9
sg10
I417619
sg11
I9410
sg12
g5
sg13
g5
sg14
I00
sg15
I-75000
sg16
I417619
sg17
I175000
sg18
I261516
sg19
I1271582
sg20
g5
sg21
S'bob.butts@enron.com'
p211
sg23
g5
sg24
g5
sg25
g5
sg26
g5
sg27
I150656
sg28
g5
ssS'OLSON CINDY K'
p212
(dp213
g3
I1184
sg4
I77716
sg6
I750000
sg7
F0.43877066666666664
sg8
F969729.0
sg10
I2606763
sg11
I63791
sg12
I20
sg13
I15
sg14
I00
sg15
g5
sg16
I969729
sg17
I100000
sg18
I329078
sg19
I1321557
sg20
g5
sg21
S'cindy.olson@enron.com'
p214
sg23
g5
sg24
I856
sg25
I1637034
sg26
I52
sg27
I972
sg28
g5
ssS'MCDONALD REBECCA'
p215
(dp216
g3
I894
sg4
g5
sg6
g5
sg7
g9
sg8
F934065.0
sg10
I1691366
sg11
g5
sg12
I54
sg13
I1
sg14
I00
sg15
g5
sg16
I934065
sg17
g5
sg18
g5
sg19
g5
sg20
g5
sg21
S'rebecca.mcdonald@enron.com'
p217
sg23
g5
sg24
I720
sg25
I757301
sg26
I13
sg27
g5
sg28
g5
ssS'CUMBERLAND MICHAEL S'
p218
(dp219
g3
g5
sg4
g5
sg6
I325000
sg7
F0.56892
sg8
g9
sg10
I207940
sg11
I22344
sg12
g5
sg13
g5
sg14
I00
sg15
g5
sg16
I207940
sg17
I275000
sg18
I184899
sg19
I807956
sg20
g5
sg21
g5
sg23
g5
sg24
g5
sg25
g5
sg26
g5
sg27
I713
sg28
g5
ssS'GAHN ROBERT S'
p220
(dp221
g3
g5
sg4
I73122
sg6
I509870
sg7
F0.3765822660678212
sg8
F235370.0
sg10
I318607
sg11
I50080
sg12
g5
sg13
g5
sg14
I00
sg15
I-1042
sg16
I235370
sg17
g5
sg18
I192008
sg19
I900585
sg20
g5
sg21
g5
sg23
g5
sg24
g5
sg25
I83237
sg26
g5
sg27
I76547
sg28
g5
ssS'MCCLELLAN GEORGE'
p222
(dp223
g3
I1744
sg4
g5
sg6
I900000
sg7
F0.2926811111111111
sg8
F441096.0
sg10
I947861
sg11
I228763
sg12
I52
sg13
I0
sg14
I00
sg15
I-125000
sg16
I441096
sg17
g5
sg18
I263413
sg19
I1318763
sg20
g5
sg21
S'george.mcclellan@enron.com'
p224
sg23
g5
sg24
I1469
sg25
I506765
sg26
I49
sg27
I51587
sg28
g5
ssS'HERMANN ROBERT J'
p225
(dp226
g3
g5
sg4
g5
sg6
I700000
sg7
F0.37523285714285715
sg8
F480632.0
sg10
I668132
sg11
I48357
sg12
g5
sg13
g5
sg14
I00
sg15
I-280000
sg16
I480632
sg17
I150000
sg18
I262663
sg19
I1297461
sg20
g5
sg21
S'robert.hermann@enron.com'
p227
sg23
g5
sg24
g5
sg25
I187500
sg26
g5
sg27
I416441
sg28
g5
ssS'SCRIMSHAW MATTHEW'
p228
(dp229
g3
g5
sg4
g5
sg6
g5
sg7
g9
sg8
F0.0
sg10
I759557
sg11
g5
sg12
g5
sg13
g5
sg14
I00
sg15
g5
sg16
g5
sg17
g5
sg18
g5
sg19
g5
sg20
g5
sg21
S'matthew.scrimshaw@enron.com'
p230
sg23
g5
sg24
g5
sg25
I759557
sg26
g5
sg27
g5
sg28
g5
ssS'GATHMANN WILLIAM D'
p231
(dp232
g3
g5
sg4
g5
sg6
g5
sg7
g9
sg8
F191594.0
sg10
I1945360
sg11
g5
sg12
g5
sg13
g5
sg14
I00
sg15
g5
sg16
I264013
sg17
g5
sg18
g5
sg19
g5
sg20
g5
sg21
g5
sg23
I-72419
sg24
g5
sg25
I1753766
sg26
g5
sg27
g5
sg28
g5
ssS'HAEDICKE MARK E'
p233
(dp234
g3
I4009
sg4
I2157527
sg6
I1150000
sg7
F0.32532608695652177
sg8
F194344.0
sg10
I803094
sg11
I76169
sg12
I180
sg13
I61
sg14
I00
sg15
I-934484
sg16
I524169
sg17
I983346
sg18
I374125
sg19
I3859065
sg20
g5
sg21
S'mark.haedicke@enron.com'
p235
sg23
I-329825
sg24
I1847
sg25
I608750
sg26
I1941
sg27
I52382
sg28
g5
ssS'BOWEN JR RAYMOND M'
p236
(dp237
g3
I1858
sg4
g5
sg6
I1350000
sg7
F0.20637111111111112
sg8
g9
sg10
I252055
sg11
I65907
sg12
I140
sg13
I15
sg14
I01
sg15
I-833
sg16
I252055
sg17
I974293
sg18
I278601
sg19
I2669589
sg20
g5
sg21
S'raymond.bowen@enron.com'
p238
sg23
g5
sg24
I1593
sg25
g5
sg26
I27
sg27
I1621
sg28
g5
ssS'GILLIS JOHN'
p239
(dp240
g3
g5
sg4
g5
sg6
g5
sg7
g9
sg8
F75838.0
sg10
I85641
sg11
g5
sg12
g5
sg13
g5
sg14
I00
sg15
g5
sg16
I75838
sg17
g5
sg18
g5
sg19
g5
sg20
g5
sg21
g5
sg23
g5
sg24
g5
sg25
I9803
sg26
g5
sg27
g5
sg28
g5
ssS'FITZGERALD JAY L'
p241
(dp242
g3
I936
sg4
g5
sg6
I350000
sg7
F0.56902
sg8
F956775.0
sg10
I1621236
sg11
I23870
sg12
I1
sg13
I8
sg14
I00
sg15
g5
sg16
I956775
sg17
I556416
sg18
I199157
sg19
I1414857
sg20
g5
sg21
S'jay.fitzgerald@enron.com'
p243
sg23
g5
sg24
I723
sg25
I664461
sg26
I16
sg27
I285414
sg28
g5
ssS'MORAN MICHAEL P'
p244
(dp245
g3
I672
sg4
g5
sg6
g5
sg7
g9
sg8
F161602.0
sg10
I221141
sg11
g5
sg12
I0
sg13
I0
sg14
I00
sg15
g5
sg16
I161602
sg17
g5
sg18
g5
sg19
g5
sg20
g5
sg21
S'michael.moran@enron.com'
p246
sg23
g5
sg24
I127
sg25
I59539
sg26
I19
sg27
g5
sg28
g5
ssS'REDMOND BRIAN L'
p247
(dp248
g3
I1671
sg4
g5
sg6
g5
sg7
g9
sg8
F381285.0
sg10
I7890324
sg11
I14689
sg12
I204
sg13
I49
sg14
I00
sg15
g5
sg16
I381285
sg17
g5
sg18
I96840
sg19
I111529
sg20
g5
sg21
S'brian.redmond@enron.com'
p249
sg23
g5
sg24
I1063
sg25
I7509039
sg26
I221
sg27
g5
sg28
g5
ssS'BAZELIDES PHILIP J'
p250
(dp251
g3
g5
sg4
I684694
sg6
g5
sg7
g9
sg8
F0.0
sg10
I1599641
sg11
g5
sg12
g5
sg13
g5
sg14
I00
sg15
g5
sg16
g5
sg17
I93750
sg18
I80818
sg19
I860136
sg20
g5
sg21
g5
sg23
g5
sg24
g5
sg25
I1599641
sg26
g5
sg27
I874
sg28
g5
ssS'BELDEN TIMOTHY N'
p252
(dp253
g3
I7991
sg4
I2144013
sg6
I5249999
sg7
F0.04076172204985182
sg8
F157569.0
sg10
I1110705
sg11
I17355
sg12
I228
sg13
I108
sg14
I01
sg15
I-2334434
sg16
I157569
sg17
g5
sg18
I213999
sg19
I5501630
sg20
g5
sg21
S'tim.belden@enron.com'
p254
sg23
g5
sg24
I5521
sg25
I953136
sg26
I484
sg27
I210698
sg28
g5
ssS'DURAN WILLIAM D'
p255
(dp256
g3
I904
sg4
g5
sg6
I750000
sg7
F0.28092266666666665
sg8
F189041.0
sg10
I1640910
sg11
I25785
sg12
I106
sg13
I3
sg14
I00
sg15
g5
sg16
I189041
sg17
I1105218
sg18
I210692
sg19
I2093263
sg20
g5
sg21
S'w.duran@enron.com'
p257
sg23
g5
sg24
I599
sg25
I1451869
sg26
I12
sg27
I1568
sg28
g5
ssS'THORN TERENCE H'
p258
(dp259
g3
I266
sg4
I16586
sg6
g5
sg7
g9
sg8
F365320.0
sg10
I4817796
sg11
I46145
sg12
I0
sg13
I0
sg14
I00
sg15
g5
sg16
I365320
sg17
I200000
sg18
I222093
sg19
I911453
sg20
g5
sg21
S'terence.thorn@enron.com'
p260
sg23
g5
sg24
I73
sg25
I4452476
sg26
I41
sg27
I426629
sg28
g5
ssS'FASTOW ANDREW S'
p261
(dp262
g3
g5
sg4
g5
sg6
I1300000
sg7
F0.3389984615384615
sg8
g9
sg10
I1794412
sg11
I55921
sg12
g5
sg13
g5
sg14
I01
sg15
I-1386055
sg16
I1794412
sg17
I1736055
sg18
I440698
sg19
I2424083
sg20
g5
sg21
S'andrew.fastow@enron.com'
p263
sg23
g5
sg24
g5
sg25
g5
sg26
g5
sg27
I277464
sg28
g5
ssS'FOY JOE'
p264
(dp265
g3
I57
sg4
I181755
sg6
g5
sg7
g9
sg8
F0.0
sg10
I343434
sg11
g5
sg12
I0
sg13
I0
sg14
I00
sg15
g5
sg16
g5
sg17
g5
sg18
g5
sg19
I181755
sg20
g5
sg21
S'tracy.foy@enron.com'
p266
sg23
g5
sg24
I2
sg25
I343434
sg26
I13
sg27
g5
sg28
g5
ssS'CALGER CHRISTOPHER F'
p267
(dp268
g3
I2598
sg4
g5
sg6
I1250000
sg7
F0.1921512
sg8
g9
sg10
I126027
sg11
I35818
sg12
I199
sg13
I25
sg14
I01
sg15
I-262500
sg16
I126027
sg17
I375304
sg18
I240189
sg19
I1639297
sg20
g5
sg21
S'christopher.calger@enron.com'
p269
sg23
g5
sg24
I2188
sg25
g5
sg26
I144
sg27
I486
sg28
g5
ssS'RICE KENNETH D'
p270
(dp271
g3
I905
sg4
g5
sg6
I1750000
sg7
F0.24036342857142856
sg8
F2748364.0
sg10
I22542539
sg11
I46950
sg12
I42
sg13
I4
sg14
I01
sg15
I-3504386
sg16
I2748364
sg17
I1617011
sg18
I420636
sg19
I505050
sg20
g5
sg21
S'ken.rice@enron.com'
p272
sg23
g5
sg24
I864
sg25
I19794175
sg26
I18
sg27
I174839
sg28
g5
ssS'KAMINSKI WINCENTY J'
p273
(dp274
g3
I4607
sg4
g5
sg6
I400000
sg7
F0.6877525
sg8
F126027.0
sg10
I976037
sg11
I83585
sg12
I41
sg13
I171
sg14
I00
sg15
g5
sg16
I126027
sg17
I323466
sg18
I275101
sg19
I1086821
sg20
g5
sg21
S'vince.kaminski@enron.com'
p275
sg23
g5
sg24
I583
sg25
I850010
sg26
I14368
sg27
I4669
sg28
g5
ssS'LOCKHART EUGENE E'
p276
(dp277
g3
g5
sg4
g5
sg6
g5
sg7
g9
sg8
g9
sg10
g5
sg11
g5
sg12
g5
sg13
g5
sg14
I00
sg15
g5
sg16
g5
sg17
g5
sg18
g5
sg19
g5
sg20
g5
sg21
g5
sg23
g5
sg24
g5
sg25
g5
sg26
g5
sg27
g5
sg28
g5
ssS'COX DAVID'
p278
(dp279
g3
I102
sg4
g5
sg6
I800000
sg7
F0.39286
sg8
F378082.0
sg10
I495633
sg11
I27861
sg12
I0
sg13
I4
sg14
I00
sg15
I-41250
sg16
I378082
sg17
g5
sg18
I314288
sg19
I1101393
sg20
g5
sg21
S'chip.cox@enron.com'
p280
sg23
g5
sg24
I71
sg25
I117551
sg26
I33
sg27
I494
sg28
g5
ssS'OVERDYKE JR JERE C'
p281
(dp282
g3
g5
sg4
g5
sg6
g5
sg7
g9
sg8
F2041016.0
sg10
I7307594
sg11
I18834
sg12
g5
sg13
g5
sg14
I00
sg15
g5
sg16
I2041016
sg17
I135836
sg18
I94941
sg19
I249787
sg20
g5
sg21
S'jere.overdyke@enron.com'
p283
sg23
g5
sg24
g5
sg25
I5266578
sg26
g5
sg27
I176
sg28
g5
ssS'PEREIRA PAULO V. FERRAZ'
p284
(dp285
g3
g5
sg4
g5
sg6
g5
sg7
g9
sg8
g9
sg10
g5
sg11
I27942
sg12
g5
sg13
g5
sg14
I00
sg15
I-101250
sg16
g5
sg17
g5
sg18
g5
sg19
I27942
sg20
g5
sg21
g5
sg23
g5
sg24
g5
sg25
g5
sg26
g5
sg27
g5
sg28
I101250
ssS'STABLER FRANK'
p286
(dp287
g3
g5
sg4
g5
sg6
I500000
sg7
F0.479004
sg8
g9
sg10
I511734
sg11
I16514
sg12
g5
sg13
g5
sg14
I00
sg15
g5
sg16
I511734
sg17
g5
sg18
I239502
sg19
I1112087
sg20
g5
sg21
S'frank.stabler@enron.com'
p288
sg23
g5
sg24
g5
sg25
g5
sg26
g5
sg27
I356071
sg28
g5
ssS'SKILLING JEFFREY K'
p289
(dp290
g3
I3627
sg4
g5
sg6
I5600000
sg7
F0.19843892857142856
sg8
F6843672.0
sg10
I26093672
sg11
I29336
sg12
I88
sg13
I30
sg14
I01
sg15
g5
sg16
I6843672
sg17
I1920000
sg18
I1111258
sg19
I8682716
sg20
g5
sg21
S'jeff.skilling@enron.com'
p291
sg23
g5
sg24
I2042
sg25
I19250000
sg26
I108
sg27
I22122
sg28
g5
ssS'BLAKE JR. NORMAN P'
p292
(dp293
g3
g5
sg4
g5
sg6
g5
sg7
g9
sg8
g9
sg10
g5
sg11
I1279
sg12
g5
sg13
g5
sg14
I00
sg15
I-113784
sg16
g5
sg17
g5
sg18
g5
sg19
I1279
sg20
g5
sg21
g5
sg23
g5
sg24
g5
sg25
g5
sg26
g5
sg27
g5
sg28
I113784
ssS'SHERRICK JEFFREY B'
p294
(dp295
g3
I613
sg4
g5
sg6
g5
sg7
g9
sg8
F405999.0
sg10
I1832468
sg11
g5
sg12
I39
sg13
I18
sg14
I00
sg15
g5
sg16
I405999
sg17
g5
sg18
g5
sg19
g5
sg20
g5
sg21
S'jeffrey.sherrick@enron.com'
p296
sg23
g5
sg24
I583
sg25
I1426469
sg26
I25
sg27
g5
sg28
g5
ssS'PRENTICE JAMES'
p297
(dp298
g3
g5
sg4
I564348
sg6
g5
sg7
g9
sg8
F208809.0
sg10
I1095040
sg11
g5
sg12
g5
sg13
g5
sg14
I00
sg15
g5
sg16
I208809
sg17
g5
sg18
g5
sg19
I564348
sg20
g5
sg21
S'james.prentice@enron.com'
p299
sg23
g5
sg24
g5
sg25
I886231
sg26
g5
sg27
g5
sg28
g5
ssS'GRAY RODNEY'
p300
(dp301
g3
g5
sg4
I93585
sg6
g5
sg7
g9
sg8
g9
sg10
g5
sg11
g5
sg12
g5
sg13
g5
sg14
I00
sg15
g5
sg16
g5
sg17
I365625
sg18
I6615
sg19
I1146658
sg20
g5
sg21
g5
sg23
g5
sg24
g5
sg25
g5
sg26
g5
sg27
I680833
sg28
g5
ssS'PICKERING MARK R'
p302
(dp303
g3
I898
sg4
g5
sg6
I300000
sg7
F2.183456666666667
sg8
F0.0
sg10
I28798
sg11
I31653
sg12
I7
sg13
I0
sg14
I00
sg15
g5
sg16
g5
sg17
g5
sg18
I655037
sg19
I1386690
sg20
I400000
sg21
S'mark.pickering@enron.com'
p304
sg23
g5
sg24
I728
sg25
I28798
sg26
I67
sg27
g5
sg28
g5
ssS'THE TRAVEL AGENCY IN THE PARK'
p305
(dp306
g3
g5
sg4
g5
sg6
g5
sg7
g9
sg8
g9
sg10
g5
sg11
g5
sg12
g5
sg13
g5
sg14
I00
sg15
g5
sg16
g5
sg17
g5
sg18
g5
sg19
I362096
sg20
g5
sg21
g5
sg23
g5
sg24
g5
sg25
g5
sg26
g5
sg27
I362096
sg28
g5
ssS'NOLES JAMES L'
p307
(dp308
g3
g5
sg4
I774401
sg6
g5
sg7
g9
sg8
g9
sg10
I368705
sg11
g5
sg12
g5
sg13
g5
sg14
I00
sg15
g5
sg16
I463261
sg17
g5
sg18
g5
sg19
I774401
sg20
g5
sg21
g5
sg23
I-94556
sg24
g5
sg25
g5
sg26
g5
sg27
g5
sg28
g5
ssS'KEAN STEVEN J'
p309
(dp310
g3
I12754
sg4
g5
sg6
I1000000
sg7
F0.404338
sg8
F4131594.0
sg10
I6153642
sg11
I41953
sg12
I140
sg13
I387
sg14
I00
sg15
g5
sg16
I4131594
sg17
I300000
sg18
I404338
sg19
I1747522
sg20
g5
sg21
S'steven.kean@enron.com'
p311
sg23
g5
sg24
I3639
sg25
I2022048
sg26
I6759
sg27
I1231
sg28
g5
ssS'FOWLER PEGGY'
p312
(dp313
g3
I517
sg4
g5
sg6
g5
sg7
g9
sg8
F560170.0
sg10
I1884748
sg11
g5
sg12
I0
sg13
I0
sg14
I00
sg15
g5
sg16
I560170
sg17
g5
sg18
g5
sg19
g5
sg20
g5
sg21
S'kulvinder.fowler@enron.com'
p314
sg23
g5
sg24
I10
sg25
I1324578
sg26
I36
sg27
g5
sg28
g5
ssS'WASAFF GEORGE'
p315
(dp316
g3
I400
sg4
I831299
sg6
I325000
sg7
F0.7999876923076923
sg8
F388167.0
sg10
I2056427
sg11
g5
sg12
I22
sg13
I7
sg14
I00
sg15
I-583325
sg16
I388167
sg17
I200000
sg18
I259996
sg19
I1034395
sg20
g5
sg21
S'george.wasaff@enron.com'
p317
sg23
g5
sg24
I337
sg25
I1668260
sg26
I30
sg27
I1425
sg28
g5
ssS'WHITE JR THOMAS E'
p318
(dp319
g3
g5
sg4
g5
sg6
I450000
sg7
F0.7056511111111111
sg8
F13847074.0
sg10
I15144123
sg11
I81353
sg12
g5
sg13
g5
sg14
I00
sg15
g5
sg16
I13847074
sg17
g5
sg18
I317543
sg19
I1934359
sg20
g5
sg21
S'thomas.white@enron.com'
p320
sg23
g5
sg24
g5
sg25
I1297049
sg26
g5
sg27
I1085463
sg28
g5
ssS'CHRISTODOULOU DIOMEDES'
p321
(dp322
g3
g5
sg4
g5
sg6
g5
sg7
g9
sg8
F950730.0
sg10
I6077885
sg11
g5
sg12
g5
sg13
g5
sg14
I00
sg15
g5
sg16
I950730
sg17
g5
sg18
g5
sg19
g5
sg20
g5
sg21
S'diomedes.christodoulou@enron.com'
p323
sg23
g5
sg24
g5
sg25
I5127155
sg26
g5
sg27
g5
sg28
g5
ssS'ALLEN PHILLIP K'
p324
(dp325
g3
I2902
sg4
I2869717
sg6
I4175000
sg7
F0.04837245508982036
sg8
F0.0
sg10
I1729541
sg11
I13868
sg12
I47
sg13
I65
sg14
I00
sg15
I-3081055
sg16
I126027
sg17
I304805
sg18
I201955
sg19
I4484442
sg20
g5
sg21
S'phillip.allen@enron.com'
p326
sg23
I-126027
sg24
I1407
sg25
I1729541
sg26
I2195
sg27
I152
sg28
g5
ssS'SHARP VICTORIA T'
p327
(dp328
g3
I3136
sg4
I187469
sg6
I600000
sg7
F0.41357666666666665
sg8
F213063.0
sg10
I494136
sg11
I116337
sg12
I24
sg13
I6
sg14
I00
sg15
g5
sg16
I213063
sg17
I422158
sg18
I248146
sg19
I1576511
sg20
g5
sg21
S'vicki.sharp@enron.com'
p329
sg23
g5
sg24
I2477
sg25
I281073
sg26
I136
sg27
I2401
sg28
g5
ssS'JAEDICKE ROBERT'
p330
(dp331
g3
g5
sg4
g5
sg6
g5
sg7
g9
sg8
F0.0
sg10
I431750
sg11
g5
sg12
g5
sg13
g5
sg14
I00
sg15
I-25000
sg16
I44093
sg17
g5
sg18
g5
sg19
I83750
sg20
g5
sg21
g5
sg23
I-44093
sg24
g5
sg25
I431750
sg26
g5
sg27
g5
sg28
I108750
ssS'WINOKUR JR. HERBERT S'
p332
(dp333
g3
g5
sg4
g5
sg6
g5
sg7
g9
sg8
g9
sg10
g5
sg11
I1413
sg12
g5
sg13
g5
sg14
I00
sg15
I-25000
sg16
g5
sg17
g5
sg18
g5
sg19
I84992
sg20
g5
sg21
g5
sg23
g5
sg24
g5
sg25
g5
sg26
g5
sg27
g5
sg28
I108579
ssS'BROWN MICHAEL'
p334
(dp335
g3
I1486
sg4
g5
sg6
g5
sg7
g9
sg8
g9
sg10
g5
sg11
I49288
sg12
I13
sg13
I1
sg14
I00
sg15
g5
sg16
g5
sg17
g5
sg18
g5
sg19
I49288
sg20
g5
sg21
S'michael.brown@enron.com'
p336
sg23
g5
sg24
I761
sg25
g5
sg26
I41
sg27
g5
sg28
g5
ssS'BADUM JAMES P'
p337
(dp338
g3
g5
sg4
I178980
sg6
g5
sg7
g9
sg8
F0.0
sg10
I257817
sg11
I3486
sg12
g5
sg13
g5
sg14
I00
sg15
g5
sg16
g5
sg17
g5
sg18
g5
sg19
I182466
sg20
g5
sg21
g5
sg23
g5
sg24
g5
sg25
I257817
sg26
g5
sg27
g5
sg28
g5
ssS'HUGHES JAMES A'
p339
(dp340
g3
I719
sg4
g5
sg6
g5
sg7
g9
sg8
F363428.0
sg10
I1118394
sg11
g5
sg12
I35
sg13
I5
sg14
I00
sg15
g5
sg16
I363428
sg17
g5
sg18
g5
sg19
g5
sg20
g5
sg21
S'james.hughes@enron.com'
p341
sg23
g5
sg24
I589
sg25
I754966
sg26
I34
sg27
g5
sg28
g5
ssS'REYNOLDS LAWRENCE'
p342
(dp343
g3
g5
sg4
I51365
sg6
I100000
sg7
F0.76399
sg8
F61219.0
sg10
I4221891
sg11
I8409
sg12
g5
sg13
g5
sg14
I00
sg15
I-200000
sg16
I201483
sg17
I156250
sg18
I76399
sg19
I394475
sg20
g5
sg21
g5
sg23
I-140264
sg24
g5
sg25
I4160672
sg26
g5
sg27
I202052
sg28
g5
ssS'DIMICHELE RICHARD G'
p344
(dp345
g3
g5
sg4
g5
sg6
I1000000
sg7
F0.262788
sg8
F126027.0
sg10
I8317782
sg11
I35812
sg12
g5
sg13
g5
sg14
I00
sg15
g5
sg16
I126027
sg17
I694862
sg18
I262788
sg19
I2368151
sg20
g5
sg21
S'richard.dimichele@enron.com'
p346
sg23
g5
sg24
g5
sg25
I8191755
sg26
g5
sg27
I374689
sg28
g5
ssS'BHATNAGAR SANJAY'
p347
(dp348
g3
I523
sg4
g5
sg6
g5
sg7
g9
sg8
g9
sS'total_stock_value'
p349
S'NaN'
p350
sg11
g5
sg12
I0
sg13
I1
sg14
I00
sg15
g5
sg16
I-2604490
sg17
g5
sg18
g5
sg19
I15456290
sg20
g5
sg21
S'sanjay.bhatnagar@enron.com'
p351
sg23
I15456290
sg24
I463
sg25
I2604490
sg26
I29
sg27
I137864
sg28
I137864
ssS'CARTER REBECCA C'
p352
(dp353
g3
I312
sg4
g5
sg6
I300000
sg7
F0.8726966666666667
sg8
g9
sg10
g5
sg11
g5
sg12
I29
sg13
I7
sg14
I00
sg15
I-159792
sg16
I307301
sg17
I75000
sg18
I261809
sg19
I477557
sg20
g5
sg21
S'rebecca.carter@enron.com'
p354
sg23
I-307301
sg24
I196
sg25
g5
sg26
I15
sg27
I540
sg28
g5
ssS'BUCHANAN HAROLD G'
p355
(dp356
g3
I1088
sg4
g5
sg6
I500000
sg7
F0.496034
sg8
F189041.0
sg10
I1014505
sg11
I600
sg12
I0
sg13
I0
sg14
I00
sg15
g5
sg16
I189041
sg17
I304805
sg18
I248017
sg19
I1054637
sg20
g5
sg21
S'john.buchanan@enron.com'
p357
sg23
g5
sg24
I23
sg25
I825464
sg26
I125
sg27
I1215
sg28
g5
ssS'YEAP SOON'
p358
(dp359
g3
g5
sg4
g5
sg6
g5
sg7
g9
sg8
F0.0
sg10
I192758
sg11
I55097
sg12
g5
sg13
g5
sg14
I00
sg15
g5
sg16
g5
sg17
g5
sg18
g5
sg19
I55097
sg20
g5
sg21
g5
sg23
g5
sg24
g5
sg25
I192758
sg26
g5
sg27
g5
sg28
g5
ssS'MURRAY JULIA H'
p360
(dp361
g3
I2192
sg4
g5
sg6
I400000
sg7
F0.57321
sg8
F196983.0
sg10
I597461
sg11
I57580
sg12
I11
sg13
I2
sg14
I00
sg15
g5
sg16
I196983
sg17
I125000
sg18
I229284
sg19
I812194
sg20
g5
sg21
S'julia.murray@enron.com'
p362
sg23
g5
sg24
I395
sg25
I400478
sg26
I45
sg27
I330
sg28
g5
ssS'GARLAND C KEVIN'
p363
(dp364
g3
I209
sg4
g5
sg6
I850000
sg7
F0.2728776470588235
sg8
F259907.0
sg10
I896153
sg11
I48405
sg12
I10
sg13
I27
sg14
I00
sg15
g5
sg16
I259907
sg17
I375304
sg18
I231946
sg19
I1566469
sg20
g5
sg21
S'kevin.garland@enron.com'
p365
sg23
g5
sg24
I178
sg25
I636246
sg26
I44
sg27
I60814
sg28
g5
ssS'DODSON KEITH'
p366
(dp367
g3
I176
sg4
g5
sg6
I70000
sg7
F3.1571857142857143
sg8
g9
sg10
g5
sg11
I28164
sg12
I10
sg13
I3
sg14
I00
sg15
g5
sg16
g5
sg17
g5
sg18
I221003
sg19
I319941
sg20
g5
sg21
S'keith.dodson@enron.com'
p368
sg23
g5
sg24
I114
sg25
g5
sg26
I14
sg27
I774
sg28
g5
ssS'YEAGER F SCOTT'
p369
(dp370
g3
g5
sg4
g5
sg6
g5
sg7
g9
sg8
F3576206.0
sg10
I11884758
sg11
I53947
sg12
g5
sg13
g5
sg14
I01
sg15
g5
sg16
I3576206
sg17
g5
sg18
I158403
sg19
I360300
sg20
g5
sg21
S'scott.yeager@enron.com'
p371
sg23
g5
sg24
g5
sg25
I8308552
sg26
g5
sg27
I147950
sg28
g5
ssS'HIRKO JOSEPH'
p372
(dp373
g3
g5
sg4
I10259
sg6
g5
sg7
g9
sg8
F0.0
sg10
I30766064
sg11
I77978
sg12
g5
sg13
g5
sg14
I01
sg15
g5
sg16
g5
sg17
g5
sg18
g5
sg19
I91093
sg20
g5
sg21
S'joe.hirko@enron.com'
p374
sg23
g5
sg24
g5
sg25
I30766064
sg26
g5
sg27
I2856
sg28
g5
ssS'DIETRICH JANET R'
p375
(dp376
g3
I2572
sg4
g5
sg6
I600000
sg7
F0.41683333333333333
sg8
F315068.0
sg10
I1865087
sg11
I3475
sg12
I305
sg13
I14
sg14
I00
sg15
g5
sg16
I315068
sg17
I556416
sg18
I250100
sg19
I1410464
sg20
g5
sg21
S'janet.dietrich@enron.com'
p377
sg23
g5
sg24
I1902
sg25
I1550019
sg26
I63
sg27
I473
sg28
g5
ssS'DERRICK JR. JAMES V'
p378
(dp379
g3
I2181
sg4
g5
sg6
I800000
sg7
F0.61546875
sg8
F0.0
sg10
I8831913
sg11
I51124
sg12
I64
sg13
I20
sg14
I00
sg15
I-1284000
sg16
I1787380
sg17
I484000
sg18
I492375
sg19
I550981
sg20
g5
sg21
S'james.derrick@enron.com'
p380
sg23
I-1787380
sg24
I1401
sg25
I8831913
sg26
I909
sg27
I7482
sg28
g5
ssS'FREVERT MARK A'
p381
(dp382
g3
I3275
sg4
I6426990
sg6
I2000000
sg7
F0.530466
sg8
F4188667.0
sg10
I14622185
sg11
I86987
sg12
I242
sg13
I6
sg14
I00
sg15
I-3367011
sg16
I4188667
sg17
I1617011
sg18
I1060932
sg19
I17252530
sg20
I2000000
sg21
S'mark.frevert@enron.com'
p383
sg23
g5
sg24
I2979
sg25
I10433518
sg26
I21
sg27
I7427621
sg28
g5
ssS'PAI LOU L'
p384
(dp385
g3
g5
sg4
g5
sg6
I1000000
sg7
F0.261879
sg8
F8453763.0
sg10
I23817930
sg11
I32047
sg12
g5
sg13
g5
sg14
I00
sg15
g5
sg16
I8453763
sg17
g5
sg18
I261879
sg19
I3123383
sg20
g5
sg21
S'lou.pai@enron.com'
p386
sg23
g5
sg24
g5
sg25
I15364167
sg26
g5
sg27
I1829457
sg28
g5
ssS'BAY FRANKLIN R'
p387
(dp388
g3
g5
sg4
I260455
sg6
I400000
sg7
F0.5991775
sg8
g9
sg10
I63014
sg11
I129142
sg12
g5
sg13
g5
sg14
I00
sg15
I-201641
sg16
I145796
sg17
g5
sg18
I239671
sg19
I827696
sg20
g5
sg21
S'frank.bay@enron.com'
p389
sg23
I-82782
sg24
g5
sg25
g5
sg26
g5
sg27
I69
sg28
g5
ssS'HAYSLETT RODERICK J'
p390
(dp391
g3
I2649
sg4
g5
sg6
g5
sg7
g9
sg8
g9
sg10
I346663
sg11
g5
sg12
I35
sg13
I38
sg14
I00
sg15
g5
sg16
I346663
sg17
g5
sg18
g5
sg19
g5
sg20
g5
sg21
S'rod.hayslett@enron.com'
p392
sg23
g5
sg24
I571
sg25
g5
sg26
I1061
sg27
g5
sg28
g5
ssS'FUGH JOHN L'
p393
(dp394
g3
g5
sg4
I50591
sg6
g5
sg7
g9
sg8
F0.0
sg10
I176378
sg11
g5
sg12
g5
sg13
g5
sg14
I00
sg15
g5
sg16
g5
sg17
g5
sg18
g5
sg19
I50591
sg20
g5
sg21
g5
sg23
g5
sg24
g5
sg25
I176378
sg26
g5
sg27
g5
sg28
g5
ssS'FALLON JAMES B'
p395
(dp396
g3
I1755
sg4
g5
sg6
I2500000
sg7
F0.1218352
sg8
F1392142.0
sg10
I2332399
sg11
I95924
sg12
I42
sg13
I37
sg14
I00
sg15
g5
sg16
I1392142
sg17
I374347
sg18
I304588
sg19
I3676340
sg20
g5
sg21
S'jim.fallon@enron.com'
p397
sg23
g5
sg24
I1604
sg25
I940257
sg26
I75
sg27
I401481
sg28
g5
ssS'KOENIG MARK E'
p398
(dp399
g3
I2374
sg4
g5
sg6
I700000
sg7
F0.44278
sg8
F1248318.0
sg10
I1920055
sg11
I127017
sg12
I53
sg13
I15
sg14
I01
sg15
g5
sg16
I1248318
sg17
I300000
sg18
I309946
sg19
I1587421
sg20
g5
sg21
S'mark.koenig@enron.com'
p400
sg23
g5
sg24
I2271
sg25
I671737
sg26
I61
sg27
I150458
sg28
g5
ssS'SAVAGE FRANK'
p401
(dp402
g3
g5
sg4
g5
sg6
g5
sg7
g9
sg8
g9
sg10
g5
sg11
g5
sg12
g5
sg13
g5
sg14
I00
sg15
I-121284
sg16
g5
sg17
g5
sg18
g5
sg19
I3750
sg20
g5
sg21
g5
sg23
g5
sg24
g5
sg25
g5
sg26
g5
sg27
g5
sg28
I125034
ssS'IZZO LAWRENCE L'
p403
(dp404
g3
I496
sg4
g5
sg6
g5
sg7
g9
sg8
F3654808.0
sg10
I5819980
sg11
I28093
sg12
I28
sg13
I5
sg14
I00
sg15
g5
sg16
I3654808
sg17
I312500
sg18
I85274
sg19
I1979596
sg20
g5
sg21
S'larry.izzo@enron.com'
p405
sg23
g5
sg24
I437
sg25
I2165172
sg26
I19
sg27
I1553729
sg28
g5
ssS'TILNEY ELIZABETH A'
p406
(dp407
g3
I460
sg4
g5
sg6
I300000
sg7
F0.82446
sg8
F576792.0
sg10
I1168042
sg11
g5
sg12
I10
sg13
I11
sg14
I00
sg15
I-575000
sg16
I576792
sg17
I275000
sg18
I247338
sg19
I399393
sg20
g5
sg21
S'elizabeth.tilney@enron.com'
p408
sg23
g5
sg24
I379
sg25
I591250
sg26
I19
sg27
I152055
sg28
g5
ssS'MARTIN AMANDA K'
p409
(dp410
g3
I1522
sg4
I85430
sg6
g5
sg7
g9
sg8
F0.0
sg10
I2070306
sg11
I8211
sg12
I8
sg13
I0
sg14
I00
sg15
g5
sg16
g5
sg17
I5145434
sg18
I349487
sg19
I8407016
sg20
g5
sg21
S'a..martin@enron.com'
p411
sg23
g5
sg24
I477
sg25
I2070306
sg26
I230
sg27
I2818454
sg28
g5
ssS'BUY RICHARD B'
p412
(dp413
g3
I3523
sg4
I649584
sg6
I900000
sg7
F0.36727333333333334
sg8
F901657.0
sg10
I3444470
sg11
g5
sg12
I156
sg13
I71
sg14
I00
sg15
I-694862
sg16
I901657
sg17
I769862
sg18
I330546
sg19
I2355702
sg20
g5
sg21
S'rick.buy@enron.com'
p414
sg23
g5
sg24
I2333
sg25
I2542813
sg26
I1053
sg27
I400572
sg28
g5
ssS'GRAMM WENDY L'
p415
(dp416
g3
g5
sg4
g5
sg6
g5
sg7
g9
sg8
g9
sg10
g5
sg11
g5
sg12
g5
sg13
g5
sg14
I00
sg15
g5
sg16
g5
sg17
g5
sg18
g5
sg19
I119292
sg20
g5
sg21
g5
sg23
g5
sg24
g5
sg25
g5
sg26
g5
sg27
g5
sg28
I119292
ssS'CAUSEY RICHARD A'
p417
(dp418
g3
I1892
sg4
g5
sg6
I1000000
sg7
F0.415189
sg8
g9
sg10
I2502063
sg11
I30674
sg12
I58
sg13
I12
sg14
I01
sg15
I-235000
sg16
I2502063
sg17
I350000
sg18
I415189
sg19
I1868758
sg20
g5
sg21
S'richard.causey@enron.com'
p419
sg23
g5
sg24
I1585
sg25
g5
sg26
I49
sg27
I307895
sg28
g5
ssS'TAYLOR MITCHELL S'
p420
(dp421
g3
I533
sg4
I227449
sg6
I600000
sg7
F0.4420233333333333
sg8
F563798.0
sg10
I3745048
sg11
g5
sg12
I0
sg13
I0
sg14
I00
sg15
g5
sg16
I563798
sg17
g5
sg18
I265214
sg19
I1092663
sg20
g5
sg21
S'mitchell.taylor@enron.com'
p422
sg23
g5
sg24
I300
sg25
I3181250
sg26
I29
sg27
g5
sg28
g5
ssS'DONAHUE JR JEFFREY M'
p423
(dp424
g3
I865
sg4
g5
sg6
I800000
sg7
F0.34825125
sg8
F315068.0
sg10
I1080988
sg11
I96268
sg12
I188
sg13
I11
sg14
I00
sg15
I-300000
sg16
I315068
sg17
g5
sg18
I278601
sg19
I875760
sg20
g5
sg21
S'jeff.donahue@enron.com'
p425
sg23
g5
sg24
I772
sg25
I765920
sg26
I22
sg27
I891
sg28
g5
ssS'GLISAN JR BEN F'
p426
(dp427
g3
I873
sg4
g5
sg6
I600000
sg7
F0.45829166666666665
sg8
F393818.0
sg10
I778546
sg11
I125978
sg12
I52
sg13
I6
sg14
I01
sg15
g5
sg16
I393818
sg17
I71023
sg18
I274975
sg19
I1272284
sg20
g5
sg21
S'ben.glisan@enron.com'
p428
sg23
g5
sg24
I874
sg25
I384728
sg26
I16
sg27
I200308
sg28
g5
ss.