(lp0
S'poi'
p1
aS'salary'
p2
aS'salary_bonus_ratio'
p3
aS'total_minus_exercised'
p4
aS'to_messages'
p5
aS'deferral_payments'
p6
aS'total_payments'
p7
aS'exercised_stock_options'
p8
aS'bonus'
p9
aS'restricted_stock'
p10
aS'shared_receipt_with_poi'
p11
aS'restricted_stock_deferred'
p12
aS'total_stock_value'
p13
aS'expenses'
p14
aS'loan_advances'
p15
aS'from_messages'
p16
aS'other'
p17
aS'from_this_person_to_poi'
p18
aS'director_fees'
p19
aS'deferred_income'
p20
aS'long_term_incentive'
p21
aS'from_poi_to_this_person'
p22
a.